target datalayout = "e-m:e-p270:32:32-p271:32:32-p272:64:64-i64:64-i128:128-f80:128-n8:16:32:64-S128"
target triple = "x86_64-pc-linux-gnu"

%struct.MPADecodeContext = type { i32, i32, i32, i32, i32, i32, i32, i32, i32, i32, [1048 x i8], i32, i32, i32, %struct.GetBitContext, %struct.GetBitContext, [2 x [1024 x i32]], [2 x i32], [8 x i8], [2 x [36 x [32 x i32]]], [2 x [576 x i32]], [2 x [2 x %struct.GranuleDef]], i32, i32, i32, ptr, %struct.MPADSPContext, ptr, ptr, i32 }
%struct.GetBitContext = type { ptr, ptr, i32, i32, i32 }
%struct.GranuleDef = type { i8, i32, i32, i32, i32, i8, i8, [3 x i32], [3 x i32], i8, i8, [3 x i32], i32, i32, i32, [40 x i8], [12 x i8], [576 x i32] }
%struct.MPADSPContext = type { ptr, ptr, ptr, ptr, ptr, ptr }

@.str.25 = private unnamed_addr constant [18 x i8] c"CRC mismatch %X!\0A\00", align 1

; Function Attrs: alwaysinline nounwind willreturn memory(none) uwtable
define internal i32 @av_bswap32(i32 noundef %0) #6 {
  %2 = alloca i32, align 4
  store i32 %0, ptr %2, align 4, !tbaa !50
  %3 = load i32, ptr %2, align 4, !tbaa !50
  %4 = shl i32 %3, 8
  %5 = and i32 %4, 65280
  %6 = load i32, ptr %2, align 4, !tbaa !50
  %7 = lshr i32 %6, 8
  %8 = and i32 %7, 255
  %9 = or i32 %5, %8
  %10 = shl i32 %9, 16
  %11 = load i32, ptr %2, align 4, !tbaa !50
  %12 = lshr i32 %11, 16
  %13 = shl i32 %12, 8
  %14 = and i32 %13, 65280
  %15 = load i32, ptr %2, align 4, !tbaa !50
  %16 = lshr i32 %15, 16
  %17 = lshr i32 %16, 8
  %18 = and i32 %17, 255
  %19 = or i32 %14, %18
  %20 = or i32 %10, %19
  ret i32 %20
}

; Function Attrs: nounwind uwtable
define internal i32 @handle_crc(ptr noundef %0, i32 noundef %1) #1 {
  %3 = alloca i32, align 4
  %4 = alloca ptr, align 8
  %5 = alloca i32, align 4
  %6 = alloca ptr, align 8
  %7 = alloca i32, align 4
  %8 = alloca i32, align 4
  %9 = alloca ptr, align 8
  %10 = alloca [4 x i8], align 1
  %11 = alloca i32, align 4
  %12 = alloca i32, align 4
  store ptr %0, ptr %4, align 8, !tbaa !29
  store i32 %1, ptr %5, align 4, !tbaa !50
  %13 = load ptr, ptr %4, align 8, !tbaa !29
  %14 = getelementptr inbounds nuw %struct.MPADecodeContext, ptr %13, i32 0, i32 1
  %15 = load i32, ptr %14, align 4, !tbaa !104
  %16 = icmp ne i32 %15, 0
  br i1 %16, label %17, label %87

17:                                               ; preds = %2
  %18 = load ptr, ptr %4, align 8, !tbaa !29
  %19 = getelementptr inbounds nuw %struct.MPADecodeContext, ptr %18, i32 0, i32 24
  %20 = load i32, ptr %19, align 8, !tbaa !40
  %21 = and i32 %20, 1
  %22 = icmp ne i32 %21, 0
  br i1 %22, label %23, label %87

23:                                               ; preds = %17
  call void @llvm.lifetime.start.p0(i64 8, ptr %6) #13
  %24 = load ptr, ptr %4, align 8, !tbaa !29
  %25 = getelementptr inbounds nuw %struct.MPADecodeContext, ptr %24, i32 0, i32 14
  %26 = getelementptr inbounds nuw %struct.GetBitContext, ptr %25, i32 0, i32 0
  %27 = load ptr, ptr %26, align 16, !tbaa !111
  %28 = getelementptr inbounds i8, ptr %27, i64 -4
  store ptr %28, ptr %6, align 8, !tbaa !48
  call void @llvm.lifetime.start.p0(i64 4, ptr %7) #13
  %29 = load i32, ptr %5, align 4, !tbaa !50
  %30 = ashr i32 %29, 3
  store i32 %30, ptr %7, align 4, !tbaa !50
  call void @llvm.lifetime.start.p0(i64 4, ptr %8) #13
  %31 = load i32, ptr %5, align 4, !tbaa !50
  %32 = and i32 %31, 7
  store i32 %32, ptr %8, align 4, !tbaa !50
  call void @llvm.lifetime.start.p0(i64 8, ptr %9) #13
  %33 = call ptr @av_crc_get_table(i32 noundef 1)
  store ptr %33, ptr %9, align 8, !tbaa !43
  call void @llvm.lifetime.start.p0(i64 4, ptr %10) #13
  call void @llvm.lifetime.start.p0(i64 4, ptr %11) #13
  %34 = load ptr, ptr %9, align 8, !tbaa !43
  %35 = load ptr, ptr %6, align 8, !tbaa !48
  %36 = getelementptr inbounds i8, ptr %35, i64 2
  %37 = call i32 @av_crc(ptr noundef %34, i32 noundef 65535, ptr noundef %36, i64 noundef 2) #17
  store i32 %37, ptr %11, align 4, !tbaa !50
  %38 = load ptr, ptr %9, align 8, !tbaa !43
  %39 = load i32, ptr %11, align 4, !tbaa !50
  %40 = load ptr, ptr %6, align 8, !tbaa !48
  %41 = getelementptr inbounds i8, ptr %40, i64 6
  %42 = load i32, ptr %7, align 4, !tbaa !50
  %43 = sext i32 %42 to i64
  %44 = call i32 @av_crc(ptr noundef %38, i32 noundef %39, ptr noundef %41, i64 noundef %43) #17
  store i32 %44, ptr %11, align 4, !tbaa !50
  %45 = load ptr, ptr %6, align 8, !tbaa !48
  %46 = load i32, ptr %7, align 4, !tbaa !50
  %47 = add nsw i32 6, %46
  %48 = sext i32 %47 to i64
  %49 = getelementptr inbounds i8, ptr %45, i64 %48
  %50 = load i8, ptr %49, align 1, !tbaa !51
  %51 = zext i8 %50 to i32
  %52 = load i32, ptr %8, align 4, !tbaa !50
  %53 = lshr i32 65280, %52
  %54 = and i32 %51, %53
  %55 = shl i32 %54, 24
  %56 = load ptr, ptr %4, align 8, !tbaa !29
  %57 = getelementptr inbounds nuw %struct.MPADecodeContext, ptr %56, i32 0, i32 29
  %58 = load i32, ptr %57, align 8, !tbaa !105
  %59 = shl i32 %58, 16
  %60 = load i32, ptr %8, align 4, !tbaa !50
  %61 = lshr i32 %59, %60
  %62 = add i32 %55, %61
  %63 = call i32 @av_bswap32(i32 noundef %62) #14
  %64 = getelementptr inbounds [4 x i8], ptr %10, i64 0, i64 0
  store i32 %63, ptr %64, align 1, !tbaa !51
  %65 = load ptr, ptr %9, align 8, !tbaa !43
  %66 = load i32, ptr %11, align 4, !tbaa !50
  %67 = getelementptr inbounds [4 x i8], ptr %10, i64 0, i64 0
  %68 = call i32 @av_crc(ptr noundef %65, i32 noundef %66, ptr noundef %67, i64 noundef 3) #17
  store i32 %68, ptr %11, align 4, !tbaa !50
  %69 = load i32, ptr %11, align 4, !tbaa !50
  %70 = icmp ne i32 %69, 0
  br i1 %70, label %71, label %83

71:                                               ; preds = %23
  %72 = load ptr, ptr %4, align 8, !tbaa !29
  %73 = getelementptr inbounds nuw %struct.MPADecodeContext, ptr %72, i32 0, i32 25
  %74 = load ptr, ptr %73, align 16, !tbaa !31
  %75 = load i32, ptr %11, align 4, !tbaa !50
  call void (ptr, i32, ptr, ...) @av_log(ptr noundef %74, i32 noundef 16, ptr noundef @.str.25, i32 noundef %75)
  %76 = load ptr, ptr %4, align 8, !tbaa !29
  %77 = getelementptr inbounds nuw %struct.MPADecodeContext, ptr %76, i32 0, i32 24
  %78 = load i32, ptr %77, align 8, !tbaa !40
  %79 = and i32 %78, 8
  %80 = icmp ne i32 %79, 0
  br i1 %80, label %81, label %82

81:                                               ; preds = %71
  store i32 -1094995529, ptr %3, align 4
  store i32 1, ptr %12, align 4
  br label %84

82:                                               ; preds = %71
  br label %83

83:                                               ; preds = %82, %23
  store i32 0, ptr %12, align 4
  br label %84

84:                                               ; preds = %83, %81
  call void @llvm.lifetime.end.p0(i64 4, ptr %11) #13
  call void @llvm.lifetime.end.p0(i64 4, ptr %10) #13
  call void @llvm.lifetime.end.p0(i64 8, ptr %9) #13
  call void @llvm.lifetime.end.p0(i64 4, ptr %8) #13
  call void @llvm.lifetime.end.p0(i64 4, ptr %7) #13
  call void @llvm.lifetime.end.p0(i64 8, ptr %6) #13
  %85 = load i32, ptr %12, align 4
  switch i32 %85, label %90 [
    i32 0, label %86
    i32 1, label %88
  ]

86:                                               ; preds = %84
  br label %87

87:                                               ; preds = %86, %17, %2
  store i32 0, ptr %3, align 4
  br label %88

88:                                               ; preds = %87, %84
  %89 = load i32, ptr %3, align 4
  ret i32 %89

90:                                               ; preds = %84
  unreachable
}