; Function Attrs: nounwind uwtable
define internal fastcc range(i32 -1094995529, 1) i32 @handle_crc(ptr noundef readonly captures(none) %0, i32 noundef range(i32 -2147483648, 2147483632) %1) unnamed_addr #1 {
  %3 = alloca [4 x i8], align 4
  %4 = getelementptr inbounds nuw i8, ptr %0, i64 4
  %5 = load i32, ptr %4, align 4, !tbaa !97
  %.not = icmp eq i32 %5, 0
  br i1 %.not, label %41, label %6

6:                                                ; preds = %2
  %7 = getelementptr inbounds nuw i8, ptr %0, i64 32936
  %8 = load i32, ptr %7, align 8, !tbaa !37
  %9 = and i32 %8, 1
  %.not25 = icmp eq i32 %9, 0
  br i1 %.not25, label %41, label %10

10:                                               ; preds = %6
  %11 = getelementptr inbounds nuw i8, ptr %0, i64 1104
  %12 = load ptr, ptr %11, align 16, !tbaa !194
  %13 = getelementptr inbounds i8, ptr %12, i64 -4
  %14 = ashr i32 %1, 3
  %15 = and i32 %1, 7
  %16 = tail call ptr @av_crc_get_table(i32 noundef 1) #14
  call void @llvm.lifetime.start.p0(i64 4, ptr nonnull %3) #14
  %17 = getelementptr inbounds i8, ptr %12, i64 -2
  %18 = tail call i32 @av_crc(ptr noundef %16, i32 noundef 65535, ptr noundef nonnull %17, i64 noundef 2) #18
  %19 = getelementptr inbounds nuw i8, ptr %12, i64 2
  %20 = sext i32 %14 to i64
  %21 = tail call i32 @av_crc(ptr noundef %16, i32 noundef %18, ptr noundef nonnull %19, i64 noundef %20) #18
  %22 = getelementptr i8, ptr %13, i64 %20
  %23 = getelementptr i8, ptr %22, i64 6
  %24 = load i8, ptr %23, align 1, !tbaa !42
  %25 = zext i8 %24 to i32
  %26 = lshr exact i32 65280, %15
  %27 = and i32 %26, %25
  %28 = shl nuw i32 %27, 24
  %29 = getelementptr inbounds nuw i8, ptr %0, i64 33016
  %30 = load i32, ptr %29, align 8, !tbaa !98
  %31 = shl i32 %30, 16
  %32 = lshr exact i32 %31, %15
  %33 = add i32 %28, %32
  %34 = tail call i32 @llvm.bswap.i32(i32 %33)
  store i32 %34, ptr %3, align 4, !tbaa !42
  %35 = call i32 @av_crc(ptr noundef %16, i32 noundef %21, ptr noundef nonnull %3, i64 noundef 3) #18
  %.not26 = icmp eq i32 %35, 0
  br i1 %.not26, label %.sink.split, label %36

36:                                               ; preds = %10
  %37 = getelementptr inbounds nuw i8, ptr %0, i64 32944
  %38 = load ptr, ptr %37, align 16, !tbaa !27
  call void (ptr, i32, ptr, ...) @av_log(ptr noundef %38, i32 noundef 16, ptr noundef nonnull @.str.25, i32 noundef %35) #14
  %39 = load i32, ptr %7, align 8, !tbaa !37
  %40 = and i32 %39, 8
  %.not27 = icmp eq i32 %40, 0
  %spec.select = select i1 %.not27, i32 0, i32 -1094995529
  br label %.sink.split

.sink.split:                                      ; preds = %36, %10
  %.1.ph = phi i32 [ 0, %10 ], [ %spec.select, %36 ]
  call void @llvm.lifetime.end.p0(i64 4, ptr nonnull %3) #14
  br label %41

41:                                               ; preds = %.sink.split, %2, %6
  %.1 = phi i32 [ 0, %6 ], [ 0, %2 ], [ %.1.ph, %.sink.split ]
  ret i32 %.1
}